target datalayout = "e-m:e-p270:32:32-p271:32:32-p272:64:64-i64:64-i128:128-f80:128-n8:16:32:64-S128"
target triple = "x86_64-unknown-linux-gnu"

%struct.Flash = type { %struct.SSIPeripheral, ptr, ptr, i32, i32, i8, [16 x i8], i32, i32, i8, i8, i8, i32, i32, i32, i32, i8, i8, i8, i8, i8, i8, i8, i8, i8, i8, i8, i8, i8, i8, i8, i8, i8, i8, i8, i8, i8, i64, ptr }
%struct.SSIPeripheral = type { %struct.DeviceState, ptr, i8, i8 }
%struct.DeviceState = type { %struct.Object, ptr, ptr, i8, i8, i64, ptr, i32, i8, ptr, %struct.NamedGPIOListHead, %struct.NamedClockListHead, %struct.BusStateHead, i32, i32, i32, %struct.ResettableState, ptr, %struct.MemReentrancyGuard }
%struct.Object = type { ptr, ptr, ptr, i32, ptr }
%struct.NamedGPIOListHead = type { ptr }
%struct.NamedClockListHead = type { ptr }
%struct.BusStateHead = type { ptr }
%struct.ResettableState = type { i32, i8, i8 }
%struct.MemReentrancyGuard = type { i8 }

@.str = private unnamed_addr constant [15 x i8] c"m25p80-generic\00", align 1
@.str.139 = private unnamed_addr constant [26 x i8] c"../qemu/hw/block/m25p80.c\00", align 1
@__func__.M25P80 = private unnamed_addr constant [7 x i8] c"M25P80\00", align 1

; Function Attrs: nounwind sspstrong uwtable
define internal ptr @M25P80(ptr noundef %obj) #0 {
entry:
  %obj.addr = alloca ptr, align 8
  store ptr %obj, ptr %obj.addr, align 8
  %0 = load ptr, ptr %obj.addr, align 8
  %call = call ptr @object_dynamic_cast_assert(ptr noundef %0, ptr noundef @.str, ptr noundef @.str.139, i32 noundef 516, ptr noundef @__func__.M25P80)
  ret ptr %call
}

; Function Attrs: nounwind sspstrong uwtable
define internal void @m25p80_reset(ptr noundef %d) #0 {
entry:
  %d.addr = alloca ptr, align 8
  %s = alloca ptr, align 8
  store ptr %d, ptr %d.addr, align 8
  %0 = load ptr, ptr %d.addr, align 8
  %call = call ptr @M25P80(ptr noundef %0)
  store ptr %call, ptr %s, align 8
  %1 = load ptr, ptr %s, align 8
  %wp_level = getelementptr inbounds %struct.Flash, ptr %1, i32 0, i32 24
  store i8 1, ptr %wp_level, align 8
  %2 = load ptr, ptr %s, align 8
  %status_register_write_disabled = getelementptr inbounds %struct.Flash, ptr %2, i32 0, i32 35
  store i8 0, ptr %status_register_write_disabled, align 1
  %3 = load ptr, ptr %s, align 8
  %block_protect0 = getelementptr inbounds %struct.Flash, ptr %3, i32 0, i32 30
  store i8 0, ptr %block_protect0, align 2
  %4 = load ptr, ptr %s, align 8
  %block_protect1 = getelementptr inbounds %struct.Flash, ptr %4, i32 0, i32 31
  store i8 0, ptr %block_protect1, align 1
  %5 = load ptr, ptr %s, align 8
  %block_protect2 = getelementptr inbounds %struct.Flash, ptr %5, i32 0, i32 32
  store i8 0, ptr %block_protect2, align 8
  %6 = load ptr, ptr %s, align 8
  %block_protect3 = getelementptr inbounds %struct.Flash, ptr %6, i32 0, i32 33
  store i8 0, ptr %block_protect3, align 1
  %7 = load ptr, ptr %s, align 8
  %top_bottom_bit = getelementptr inbounds %struct.Flash, ptr %7, i32 0, i32 34
  store i8 0, ptr %top_bottom_bit, align 2
  %8 = load ptr, ptr %s, align 8
  call void @reset_memory(ptr noundef %8)
  ret void
}