; Function Attrs: nounwind sspstrong uwtable
define internal void @m25p80_reset(ptr noundef %d) #0 {
entry:
  %call.i = tail call ptr @object_dynamic_cast_assert(ptr noundef %d, ptr noundef nonnull @.str, ptr noundef nonnull @.str.139, i32 noundef 516, ptr noundef nonnull @__func__.M25P80) #13
  %wp_level = getelementptr inbounds nuw i8, ptr %call.i, i64 256
  store i8 1, ptr %wp_level, align 8
  %block_protect0 = getelementptr inbounds nuw i8, ptr %call.i, i64 262
  tail call void @llvm.memset.p0.i64(ptr noundef nonnull align 2 dereferenceable(6) %block_protect0, i8 0, i64 6, i1 false)
  tail call fastcc void @reset_memory(ptr noundef %call.i)
  ret void
}